Certificate:
    Data:
        Version: 3 (0x2)
        Serial Number: 1 (0x1)
        Signature Algorithm: sha1WithRSAEncryption
        Issuer: C=CN, ST=ZheJiang, L=HangZhou, O=dbappsecurity, OU=webscan, CN=webscan-proxy/emailAddress=info@dbappsecurity.com.cn
        Validity
            Not Before: Jul 10 09:17:32 2013 GMT
            Not After : Jul 10 09:17:32 2014 GMT
        Subject: C=CN, ST=ZheJiang, O=dbappsecurity, OU=webscan, CN=webscan-proxy/emailAddress=info@dbappsecurity.com.cn
        Subject Public Key Info:
            Public Key Algorithm: rsaEncryption
            RSA Public Key: (2048 bit)
                Modulus (2048 bit):
                    00:be:52:06:6e:cd:85:44:0b:a4:58:9a:04:5b:32:
                    eb:51:0f:a2:32:4e:34:a9:72:d6:03:64:4a:b6:14:
                    34:82:2f:bd:00:e9:4c:ec:d1:9e:e1:28:b8:59:f9:
                    e3:d9:2c:df:46:12:e0:d6:a8:3a:ea:9c:36:3a:95:
                    56:fc:dd:88:70:3d:b4:4d:2c:a7:1c:8a:9b:1d:4c:
                    88:88:89:61:78:5b:92:0e:4c:89:e8:ad:5e:b2:33:
                    29:6d:f7:1a:2b:29:e3:ff:47:7a:f9:23:a3:b2:bc:
                    7c:f6:36:b7:f1:41:d5:d0:91:50:cf:85:6e:5a:49:
                    1f:8f:e3:ce:b8:3c:d4:55:e5:ed:b7:34:3d:60:b8:
                    95:24:e6:bf:f4:ea:f5:c4:ba:8e:5b:f1:1b:98:d5:
                    af:e6:4c:cc:f3:9b:8e:a1:39:97:f5:c1:38:0e:02:
                    1b:7b:19:46:b2:eb:e8:89:54:1a:77:2b:e4:78:93:
                    2b:5e:02:77:d1:17:17:8c:cf:62:fb:a1:c9:99:ec:
                    46:8f:bc:93:63:67:36:af:f1:cf:7b:39:b0:67:77:
                    1f:eb:04:15:5f:bb:cc:7c:42:10:93:f6:67:40:8c:
                    c0:3c:73:8b:ea:c6:46:4b:7d:ae:23:e3:17:51:c4:
                    a7:81:9b:1d:70:89:b3:22:7c:38:1f:12:ec:3b:0a:
                    bf:a7
                Exponent: 65537 (0x10001)
        X509v3 extensions:
            X509v3 Basic Constraints: 
                CA:FALSE
            Netscape Comment: 
                OpenSSL Generated Certificate
            X509v3 Subject Key Identifier: 
                18:42:B6:13:B0:96:EB:24:FD:8D:6C:B2:D3:48:20:46:52:DB:49:75
            X509v3 Authority Key Identifier: 
                keyid:5E:5C:E4:D4:D6:63:5E:5B:41:C2:3F:3A:07:B7:53:CD:ED:05:6A:73

    Signature Algorithm: sha1WithRSAEncryption
        40:80:f7:70:93:5b:1a:99:5b:3b:4d:84:32:d4:f9:1d:49:70:
        a6:3b:9c:7f:05:0c:74:85:a2:2b:66:d1:57:c6:9a:3c:33:4e:
        68:84:3d:67:1e:13:a8:b1:25:11:bd:44:d8:1a:fe:a2:cc:fa:
        85:5d:cb:c5:59:87:60:61:7f:11:df:1e:f9:f9:c2:53:7f:e1:
        f0:37:f3:7f:54:6c:8f:07:b1:04:be:94:3c:63:72:23:90:7c:
        13:0b:47:a3:e2:8f:6e:97:e5:07:5e:c0:99:3a:6c:26:be:b2:
        f2:a9:c7:8c:79:53:a1:f2:f2:dc:58:be:9e:30:3e:41:d8:73:
        7d:86
-----BEGIN CERTIFICATE-----
MIIDojCCAwugAwIBAgIBATANBgkqhkiG9w0BAQUFADCBnzELMAkGA1UEBhMCQ04x
ETAPBgNVBAgTCFpoZUppYW5nMREwDwYDVQQHEwhIYW5nWmhvdTEWMBQGA1UEChMN
ZGJhcHBzZWN1cml0eTEQMA4GA1UECxMHd2Vic2NhbjEWMBQGA1UEAxMNd2Vic2Nh
bi1wcm94eTEoMCYGCSqGSIb3DQEJARYZaW5mb0BkYmFwcHNlY3VyaXR5LmNvbS5j
bjAeFw0xMzA3MTAwOTE3MzJaFw0xNDA3MTAwOTE3MzJaMIGMMQswCQYDVQQGEwJD
TjERMA8GA1UECBMIWmhlSmlhbmcxFjAUBgNVBAoTDWRiYXBwc2VjdXJpdHkxEDAO
BgNVBAsTB3dlYnNjYW4xFjAUBgNVBAMTDXdlYnNjYW4tcHJveHkxKDAmBgkqhkiG
9w0BCQEWGWluZm9AZGJhcHBzZWN1cml0eS5jb20uY24wggEiMA0GCSqGSIb3DQEB
AQUAA4IBDwAwggEKAoIBAQC+UgZuzYVEC6RYmgRbMutRD6IyTjSpctYDZEq2FDSC
L70A6Uzs0Z7hKLhZ+ePZLN9GEuDWqDrqnDY6lVb83YhwPbRNLKccipsdTIiIiWF4
W5IOTInorV6yMylt9xorKeP/R3r5I6OyvHz2NrfxQdXQkVDPhW5aSR+P4864PNRV
5e23ND1guJUk5r/06vXEuo5b8RuY1a/mTMzzm46hOZf1wTgOAht7GUay6+iJVBp3
K+R4kyteAnfRFxeMz2L7ocmZ7EaPvJNjZzav8c97ObBndx/rBBVfu8x8QhCT9mdA
jMA8c4vqxkZLfa4j4xdRxKeBmx1wibMifDgfEuw7Cr+nAgMBAAGjezB5MAkGA1Ud
EwQCMAAwLAYJYIZIAYb4QgENBB8WHU9wZW5TU0wgR2VuZXJhdGVkIENlcnRpZmlj
YXRlMB0GA1UdDgQWBBQYQrYTsJbrJP2NbLLTSCBGUttJdTAfBgNVHSMEGDAWgBRe
XOTU1mNeW0HCPzoHt1PN7QVqczANBgkqhkiG9w0BAQUFAAOBgQBAgPdwk1samVs7
TYQy1PkdSXCmO5x/BQx0haIrZtFXxpo8M05ohD1nHhOosSURvUTYGv6izPqFXcvF
WYdgYX8R3x75+cJTf+HwN/N/VGyPB7EEvpQ8Y3IjkHwTC0ej4o9ul+UHXsCZOmwm
vrLyqceMeVOh8vLcWL6eMD5B2HN9hg==
-----END CERTIFICATE-----
